target datalayout = "e-m:e-p270:32:32-p271:32:32-p272:64:64-i64:64-i128:128-f80:128-n8:16:32:64-S128"
target triple = "x86_64-pc-linux-gnu"

@.str.3 = private unnamed_addr constant [22 x i8] c"testfunc_DDD(%p, %p)\0A\00", align 1
@.str.4 = private unnamed_addr constant [24 x i8] c"testfunc_DDD(%Lg, %Lg)\0A\00", align 1

; Function Attrs: nounwind uwtable
define x86_fp80 @testfunc_DDD(x86_fp80 noundef %0, x86_fp80 noundef %1) #0 {
  %3 = alloca x86_fp80, align 16
  %4 = alloca x86_fp80, align 16
  %5 = alloca x86_fp80, align 16
  store x86_fp80 %0, ptr %3, align 16, !tbaa !46
  store x86_fp80 %1, ptr %4, align 16, !tbaa !46
  call void @llvm.lifetime.start.p0(i64 16, ptr %5) #12
  %6 = load x86_fp80, ptr %3, align 16, !tbaa !46
  %7 = load x86_fp80, ptr %4, align 16, !tbaa !46
  %8 = fmul x86_fp80 %6, %7
  store x86_fp80 %8, ptr %5, align 16, !tbaa !46
  %9 = call i32 (ptr, ...) @printf(ptr noundef @.str.3, ptr noundef %3, ptr noundef %4)
  %10 = load x86_fp80, ptr %3, align 16, !tbaa !46
  %11 = load x86_fp80, ptr %4, align 16, !tbaa !46
  %12 = call i32 (ptr, ...) @printf(ptr noundef @.str.4, x86_fp80 noundef %10, x86_fp80 noundef %11)
  %13 = load x86_fp80, ptr %5, align 16, !tbaa !46
  call void @llvm.lifetime.end.p0(i64 16, ptr %5) #12
  ret x86_fp80 %13
}