; Function Attrs: nofree nounwind uwtable
define noundef x86_fp80 @testfunc_DDD(x86_fp80 noundef %0, x86_fp80 noundef %1) local_unnamed_addr #13 {
  %3 = alloca x86_fp80, align 16
  %4 = alloca x86_fp80, align 16
  store x86_fp80 %0, ptr %3, align 16, !tbaa !40
  store x86_fp80 %1, ptr %4, align 16, !tbaa !40
  %5 = fmul x86_fp80 %0, %1
  %6 = call i32 (ptr, ...) @printf(ptr noundef nonnull dereferenceable(1) @.str.3, ptr noundef nonnull %3, ptr noundef nonnull %4)
  %7 = load x86_fp80, ptr %3, align 16, !tbaa !40
  %8 = load x86_fp80, ptr %4, align 16, !tbaa !40
  %9 = call i32 (ptr, ...) @printf(ptr noundef nonnull dereferenceable(1) @.str.4, x86_fp80 noundef %7, x86_fp80 noundef %8)
  ret x86_fp80 %5
}